(dp0
I3
F0.06608838551246977
sI485
F0.005564944583983044
sI3142
F0.00010270870876478773
sI359
F0.0006349265632732331
sI11
F0.14651864163064082
sI1708
F0.0003548119030056303
sI78
F0.10663965116387641
sI271
F0.013277434896684375
sI16
F0.28547418743405634
sI43
F0.03890792631117004
sI18
F0.10057050019141169
sI243
F0.005676990448090085
sI213
F0.014939448547605486
sI1334
F0.0016526764955788569
sI511
F0.001391236145995761
sI1432
F0.0020074883985844874
sI25
F0.13361469294764658
sI6719
F7.469724273802744e-05
sI29
F0.06592031671630921
sI990
F0.002931866777467577
sI181
F0.007656467380647812
s.